; ModuleID = '51/507.c'
source_filename = "51/507.c"
target datalayout = "e-m:e-p270:32:32-p271:32:32-p272:64:64-i64:64-f80:128-n8:16:32:64-S128"
target triple = "x86_64-pc-linux-gnu"

@.str = private unnamed_addr constant [3 x i8] c"%d\00", align 1
@.str.1 = private unnamed_addr constant [3 x i8] c"%s\00", align 1
@.str.2 = private unnamed_addr constant [4 x i8] c"NO\0A\00", align 1
@.str.3 = private unnamed_addr constant [4 x i8] c"%d\0A\00", align 1
@.str.4 = private unnamed_addr constant [4 x i8] c"%s\0A\00", align 1

; Function Attrs: noinline nounwind uwtable
define dso_local i32 @main() #0 {
  %1 = alloca i32, align 4
  %2 = alloca [501 x i8], align 16
  %3 = alloca [501 x [5 x i8]], align 16
  %4 = alloca [501 x i32], align 16
  %5 = alloca i32, align 4
  %6 = alloca i32, align 4
  %7 = alloca i32, align 4
  %8 = alloca i32, align 4
  %9 = alloca i32, align 4
  %10 = alloca i32, align 4
  %11 = alloca i32, align 4
  %12 = alloca i32, align 4
  %13 = alloca i32, align 4
  store i32 0, i32* %1, align 4
  %14 = bitcast [501 x i32]* %4 to i8*
  call void @llvm.memset.p0i8.i64(i8* align 16 %14, i8 0, i64 2004, i1 false)
  store i32 0, i32* %11, align 4
  %15 = call i32 (i8*, ...) @__isoc99_scanf(i8* getelementptr inbounds ([3 x i8], [3 x i8]* @.str, i64 0, i64 0), i32* %5)
  %16 = getelementptr inbounds [501 x i8], [501 x i8]* %2, i64 0, i64 0
  %17 = call i32 (i8*, ...) @__isoc99_scanf(i8* getelementptr inbounds ([3 x i8], [3 x i8]* @.str.1, i64 0, i64 0), i8* %16)
  %18 = getelementptr inbounds [501 x i8], [501 x i8]* %2, i64 0, i64 0
  %19 = call i64 @strlen(i8* %18) #4
  %20 = trunc i64 %19 to i32
  store i32 %20, i32* %9, align 4
  store i32 0, i32* %7, align 4
  br label %21

21:                                               ; preds = %34, %0
  %22 = load i32, i32* %7, align 4
  %23 = load i32, i32* %5, align 4
  %24 = icmp slt i32 %22, %23
  br i1 %24, label %25, label %37

25:                                               ; preds = %21
  %26 = load i32, i32* %7, align 4
  %27 = sext i32 %26 to i64
  %28 = getelementptr inbounds [501 x i8], [501 x i8]* %2, i64 0, i64 %27
  %29 = load i8, i8* %28, align 1
  %30 = getelementptr inbounds [501 x [5 x i8]], [501 x [5 x i8]]* %3, i64 0, i64 0
  %31 = load i32, i32* %7, align 4
  %32 = sext i32 %31 to i64
  %33 = getelementptr inbounds [5 x i8], [5 x i8]* %30, i64 0, i64 %32
  store i8 %29, i8* %33, align 1
  br label %34

34:                                               ; preds = %25
  %35 = load i32, i32* %7, align 4
  %36 = add nsw i32 %35, 1
  store i32 %36, i32* %7, align 4
  br label %21

37:                                               ; preds = %21
  %38 = getelementptr inbounds [501 x [5 x i8]], [501 x [5 x i8]]* %3, i64 0, i64 0
  %39 = load i32, i32* %7, align 4
  %40 = sext i32 %39 to i64
  %41 = getelementptr inbounds [5 x i8], [5 x i8]* %38, i64 0, i64 %40
  store i8 0, i8* %41, align 1
  %42 = getelementptr inbounds [501 x i32], [501 x i32]* %4, i64 0, i64 0
  %43 = load i32, i32* %42, align 16
  %44 = add nsw i32 %43, 1
  store i32 %44, i32* %42, align 16
  store i32 1, i32* %6, align 4
  store i32 1, i32* %8, align 4
  br label %45

45:                                               ; preds = %119, %37
  %46 = load i32, i32* %6, align 4
  %47 = load i32, i32* %9, align 4
  %48 = load i32, i32* %5, align 4
  %49 = sub nsw i32 %47, %48
  %50 = add nsw i32 %49, 1
  %51 = icmp slt i32 %46, %50
  br i1 %51, label %52, label %122

52:                                               ; preds = %45
  store i32 0, i32* %7, align 4
  br label %53

53:                                               ; preds = %70, %52
  %54 = load i32, i32* %7, align 4
  %55 = load i32, i32* %5, align 4
  %56 = icmp slt i32 %54, %55
  br i1 %56, label %57, label %73

57:                                               ; preds = %53
  %58 = load i32, i32* %6, align 4
  %59 = load i32, i32* %7, align 4
  %60 = add nsw i32 %58, %59
  %61 = sext i32 %60 to i64
  %62 = getelementptr inbounds [501 x i8], [501 x i8]* %2, i64 0, i64 %61
  %63 = load i8, i8* %62, align 1
  %64 = load i32, i32* %8, align 4
  %65 = sext i32 %64 to i64
  %66 = getelementptr inbounds [501 x [5 x i8]], [501 x [5 x i8]]* %3, i64 0, i64 %65
  %67 = load i32, i32* %7, align 4
  %68 = sext i32 %67 to i64
  %69 = getelementptr inbounds [5 x i8], [5 x i8]* %66, i64 0, i64 %68
  store i8 %63, i8* %69, align 1
  br label %70

70:                                               ; preds = %57
  %71 = load i32, i32* %7, align 4
  %72 = add nsw i32 %71, 1
  store i32 %72, i32* %7, align 4
  br label %53

73:                                               ; preds = %53
  %74 = load i32, i32* %8, align 4
  %75 = sext i32 %74 to i64
  %76 = getelementptr inbounds [501 x [5 x i8]], [501 x [5 x i8]]* %3, i64 0, i64 %75
  %77 = load i32, i32* %7, align 4
  %78 = sext i32 %77 to i64
  %79 = getelementptr inbounds [5 x i8], [5 x i8]* %76, i64 0, i64 %78
  store i8 0, i8* %79, align 1
  store i32 0, i32* %7, align 4
  store i32 1, i32* %10, align 4
  br label %80

80:                                               ; preds = %98, %73
  %81 = load i32, i32* %7, align 4
  %82 = load i32, i32* %8, align 4
  %83 = icmp slt i32 %81, %82
  br i1 %83, label %84, label %101

84:                                               ; preds = %80
  %85 = load i32, i32* %7, align 4
  %86 = sext i32 %85 to i64
  %87 = getelementptr inbounds [501 x [5 x i8]], [501 x [5 x i8]]* %3, i64 0, i64 %86
  %88 = getelementptr inbounds [5 x i8], [5 x i8]* %87, i64 0, i64 0
  %89 = load i32, i32* %8, align 4
  %90 = sext i32 %89 to i64
  %91 = getelementptr inbounds [501 x [5 x i8]], [501 x [5 x i8]]* %3, i64 0, i64 %90
  %92 = getelementptr inbounds [5 x i8], [5 x i8]* %91, i64 0, i64 0
  %93 = call i32 @strcmp(i8* %88, i8* %92) #4
  %94 = icmp eq i32 %93, 0
  br i1 %94, label %95, label %97

95:                                               ; preds = %84
  store i32 0, i32* %10, align 4
  %96 = load i32, i32* %7, align 4
  store i32 %96, i32* %13, align 4
  br label %101

97:                                               ; preds = %84
  br label %98

98:                                               ; preds = %97
  %99 = load i32, i32* %7, align 4
  %100 = add nsw i32 %99, 1
  store i32 %100, i32* %7, align 4
  br label %80

101:                                              ; preds = %95, %80
  %102 = load i32, i32* %10, align 4
  %103 = icmp ne i32 %102, 0
  br i1 %103, label %104, label %112

104:                                              ; preds = %101
  %105 = load i32, i32* %8, align 4
  %106 = sext i32 %105 to i64
  %107 = getelementptr inbounds [501 x i32], [501 x i32]* %4, i64 0, i64 %106
  %108 = load i32, i32* %107, align 4
  %109 = add nsw i32 %108, 1
  store i32 %109, i32* %107, align 4
  %110 = load i32, i32* %8, align 4
  %111 = add nsw i32 %110, 1
  store i32 %111, i32* %8, align 4
  br label %118

112:                                              ; preds = %101
  %113 = load i32, i32* %13, align 4
  %114 = sext i32 %113 to i64
  %115 = getelementptr inbounds [501 x i32], [501 x i32]* %4, i64 0, i64 %114
  %116 = load i32, i32* %115, align 4
  %117 = add nsw i32 %116, 1
  store i32 %117, i32* %115, align 4
  br label %118

118:                                              ; preds = %112, %104
  br label %119

119:                                              ; preds = %118
  %120 = load i32, i32* %6, align 4
  %121 = add nsw i32 %120, 1
  store i32 %121, i32* %6, align 4
  br label %45

122:                                              ; preds = %45
  %123 = load i32, i32* %8, align 4
  %124 = sub nsw i32 %123, 1
  store i32 %124, i32* %12, align 4
  store i32 0, i32* %6, align 4
  br label %125

125:                                              ; preds = %142, %122
  %126 = load i32, i32* %6, align 4
  %127 = load i32, i32* %12, align 4
  %128 = icmp sle i32 %126, %127
  br i1 %128, label %129, label %145

129:                                              ; preds = %125
  %130 = load i32, i32* %6, align 4
  %131 = sext i32 %130 to i64
  %132 = getelementptr inbounds [501 x i32], [501 x i32]* %4, i64 0, i64 %131
  %133 = load i32, i32* %132, align 4
  %134 = load i32, i32* %11, align 4
  %135 = icmp sgt i32 %133, %134
  br i1 %135, label %136, label %141

136:                                              ; preds = %129
  %137 = load i32, i32* %6, align 4
  %138 = sext i32 %137 to i64
  %139 = getelementptr inbounds [501 x i32], [501 x i32]* %4, i64 0, i64 %138
  %140 = load i32, i32* %139, align 4
  store i32 %140, i32* %11, align 4
  br label %141

141:                                              ; preds = %136, %129
  br label %142

142:                                              ; preds = %141
  %143 = load i32, i32* %6, align 4
  %144 = add nsw i32 %143, 1
  store i32 %144, i32* %6, align 4
  br label %125

145:                                              ; preds = %125
  %146 = load i32, i32* %11, align 4
  %147 = icmp eq i32 %146, 1
  br i1 %147, label %148, label %150

148:                                              ; preds = %145
  %149 = call i32 (i8*, ...) @printf(i8* getelementptr inbounds ([4 x i8], [4 x i8]* @.str.2, i64 0, i64 0))
  br label %175

150:                                              ; preds = %145
  %151 = load i32, i32* %11, align 4
  %152 = call i32 (i8*, ...) @printf(i8* getelementptr inbounds ([4 x i8], [4 x i8]* @.str.3, i64 0, i64 0), i32 %151)
  store i32 0, i32* %6, align 4
  br label %153

153:                                              ; preds = %171, %150
  %154 = load i32, i32* %6, align 4
  %155 = load i32, i32* %12, align 4
  %156 = icmp sle i32 %154, %155
  br i1 %156, label %157, label %174

157:                                              ; preds = %153
  %158 = load i32, i32* %6, align 4
  %159 = sext i32 %158 to i64
  %160 = getelementptr inbounds [501 x i32], [501 x i32]* %4, i64 0, i64 %159
  %161 = load i32, i32* %160, align 4
  %162 = load i32, i32* %11, align 4
  %163 = icmp eq i32 %161, %162
  br i1 %163, label %164, label %170

164:                                              ; preds = %157
  %165 = load i32, i32* %6, align 4
  %166 = sext i32 %165 to i64
  %167 = getelementptr inbounds [501 x [5 x i8]], [501 x [5 x i8]]* %3, i64 0, i64 %166
  %168 = getelementptr inbounds [5 x i8], [5 x i8]* %167, i64 0, i64 0
  %169 = call i32 (i8*, ...) @printf(i8* getelementptr inbounds ([4 x i8], [4 x i8]* @.str.4, i64 0, i64 0), i8* %168)
  br label %170

170:                                              ; preds = %164, %157
  br label %171

171:                                              ; preds = %170
  %172 = load i32, i32* %6, align 4
  %173 = add nsw i32 %172, 1
  store i32 %173, i32* %6, align 4
  br label %153

174:                                              ; preds = %153
  br label %175

175:                                              ; preds = %174, %148
  ret i32 0
}

; Function Attrs: argmemonly nounwind willreturn
declare void @llvm.memset.p0i8.i64(i8* nocapture writeonly, i8, i64, i1 immarg) #1

declare dso_local i32 @__isoc99_scanf(i8*, ...) #2

; Function Attrs: nounwind readonly
declare dso_local i64 @strlen(i8*) #3

; Function Attrs: nounwind readonly
declare dso_local i32 @strcmp(i8*, i8*) #3

declare dso_local i32 @printf(i8*, ...) #2


!llvm.module.flags = !{!0}
!llvm.ident = !{!1}

!0 = !{i32 1, !"wchar_size", i32 4}
!1 = !{!"clang version 10.0.0-4ubuntu1 "}
